target datalayout = "e-m:e-p270:32:32-p271:32:32-p272:64:64-i64:64-i128:128-f80:128-n8:16:32:64-S128"
target triple = "x86_64-pc-linux-gnu"

%struct._zend_posix_globals = type { i32 }
%struct._zval_struct = type { %union._zend_value, %union.anon, %union.anon.2 }
%union._zend_value = type { i64 }
%union.anon = type { i32 }
%union.anon.2 = type { i32 }
%struct._zend_execute_data = type { ptr, ptr, ptr, ptr, %struct._zval_struct, ptr, ptr, ptr, ptr }
%struct.tms = type { i64, i64, i64, i64 }

@posix_globals = hidden global %struct._zend_posix_globals zeroinitializer, align 4
@.str.9 = private unnamed_addr constant [6 x i8] c"ticks\00", align 1
@.str.10 = private unnamed_addr constant [6 x i8] c"utime\00", align 1
@.str.11 = private unnamed_addr constant [6 x i8] c"stime\00", align 1
@.str.12 = private unnamed_addr constant [7 x i8] c"cutime\00", align 1
@.str.13 = private unnamed_addr constant [7 x i8] c"cstime\00", align 1

; Function Attrs: nounwind uwtable
define hidden void @zif_posix_times(ptr noundef %0, ptr noundef %1) #0 {
  %3 = alloca ptr, align 8
  %4 = alloca ptr, align 8
  %5 = alloca i64, align 8
  %6 = alloca ptr, align 8
  %7 = alloca ptr, align 8
  %8 = alloca i64, align 8
  %9 = alloca ptr, align 8
  %10 = alloca ptr, align 8
  %11 = alloca i64, align 8
  %12 = alloca ptr, align 8
  %13 = alloca ptr, align 8
  %14 = alloca i64, align 8
  %15 = alloca ptr, align 8
  %16 = alloca ptr, align 8
  %17 = alloca i64, align 8
  %18 = alloca ptr, align 8
  %19 = alloca ptr, align 8
  %20 = alloca %struct.tms, align 8
  %21 = alloca i64, align 8
  %22 = alloca ptr, align 8
  %23 = alloca ptr, align 8
  store ptr %0, ptr %18, align 8
  store ptr %1, ptr %19, align 8
  br label %24

24:                                               ; preds = %2
  %25 = load ptr, ptr %18, align 8
  %26 = getelementptr inbounds %struct._zend_execute_data, ptr %25, i32 0, i32 4
  %27 = getelementptr inbounds %struct._zval_struct, ptr %26, i32 0, i32 2
  %28 = load i32, ptr %27, align 4
  %29 = icmp ne i32 %28, 0
  %30 = xor i1 %29, true
  %31 = xor i1 %30, true
  %32 = zext i1 %31 to i32
  %33 = sext i32 %32 to i64
  %34 = icmp ne i64 %33, 0
  br i1 %34, label %35, label %36

35:                                               ; preds = %24
  call void @zend_wrong_parameters_none_error()
  br label %98

36:                                               ; preds = %24
  br label %37

37:                                               ; preds = %36
  %38 = call i64 @times(ptr noundef %20) #9
  store i64 %38, ptr %21, align 8
  %39 = icmp eq i64 %38, -1
  br i1 %39, label %40, label %49

40:                                               ; preds = %37
  %41 = call ptr @__errno_location() #10
  %42 = load i32, ptr %41, align 4
  store i32 %42, ptr @posix_globals, align 4
  br label %43

43:                                               ; preds = %40
  br label %44

44:                                               ; preds = %43
  %45 = load ptr, ptr %19, align 8
  %46 = getelementptr inbounds %struct._zval_struct, ptr %45, i32 0, i32 1
  store i32 2, ptr %46, align 8
  br label %47

47:                                               ; preds = %44
  br label %98

48:                                               ; No predecessors!
  br label %49

49:                                               ; preds = %48, %37
  br label %50

50:                                               ; preds = %49
  %51 = call ptr @_zend_new_array_0()
  store ptr %51, ptr %22, align 8
  %52 = load ptr, ptr %19, align 8
  store ptr %52, ptr %23, align 8
  %53 = load ptr, ptr %22, align 8
  %54 = load ptr, ptr %23, align 8
  %55 = getelementptr inbounds %struct._zval_struct, ptr %54, i32 0, i32 0
  store ptr %53, ptr %55, align 8
  %56 = load ptr, ptr %23, align 8
  %57 = getelementptr inbounds %struct._zval_struct, ptr %56, i32 0, i32 1
  store i32 775, ptr %57, align 8
  br label %58

58:                                               ; preds = %50
  %59 = load ptr, ptr %19, align 8
  %60 = load i64, ptr %21, align 8
  store ptr %59, ptr %3, align 8
  store ptr @.str.9, ptr %4, align 8
  store i64 %60, ptr %5, align 8
  %61 = load ptr, ptr %3, align 8
  %62 = load ptr, ptr %4, align 8
  %63 = load ptr, ptr %4, align 8
  %64 = call i64 @strlen(ptr noundef %63) #12
  %65 = load i64, ptr %5, align 8
  call void @add_assoc_long_ex(ptr noundef %61, ptr noundef %62, i64 noundef %64, i64 noundef %65) #9
  %66 = load ptr, ptr %19, align 8
  %67 = getelementptr inbounds %struct.tms, ptr %20, i32 0, i32 0
  %68 = load i64, ptr %67, align 8
  store ptr %66, ptr %6, align 8
  store ptr @.str.10, ptr %7, align 8
  store i64 %68, ptr %8, align 8
  %69 = load ptr, ptr %6, align 8
  %70 = load ptr, ptr %7, align 8
  %71 = load ptr, ptr %7, align 8
  %72 = call i64 @strlen(ptr noundef %71) #12
  %73 = load i64, ptr %8, align 8
  call void @add_assoc_long_ex(ptr noundef %69, ptr noundef %70, i64 noundef %72, i64 noundef %73) #9
  %74 = load ptr, ptr %19, align 8
  %75 = getelementptr inbounds %struct.tms, ptr %20, i32 0, i32 1
  %76 = load i64, ptr %75, align 8
  store ptr %74, ptr %9, align 8
  store ptr @.str.11, ptr %10, align 8
  store i64 %76, ptr %11, align 8
  %77 = load ptr, ptr %9, align 8
  %78 = load ptr, ptr %10, align 8
  %79 = load ptr, ptr %10, align 8
  %80 = call i64 @strlen(ptr noundef %79) #12
  %81 = load i64, ptr %11, align 8
  call void @add_assoc_long_ex(ptr noundef %77, ptr noundef %78, i64 noundef %80, i64 noundef %81) #9
  %82 = load ptr, ptr %19, align 8
  %83 = getelementptr inbounds %struct.tms, ptr %20, i32 0, i32 2
  %84 = load i64, ptr %83, align 8
  store ptr %82, ptr %12, align 8
  store ptr @.str.12, ptr %13, align 8
  store i64 %84, ptr %14, align 8
  %85 = load ptr, ptr %12, align 8
  %86 = load ptr, ptr %13, align 8
  %87 = load ptr, ptr %13, align 8
  %88 = call i64 @strlen(ptr noundef %87) #12
  %89 = load i64, ptr %14, align 8
  call void @add_assoc_long_ex(ptr noundef %85, ptr noundef %86, i64 noundef %88, i64 noundef %89) #9
  %90 = load ptr, ptr %19, align 8
  %91 = getelementptr inbounds %struct.tms, ptr %20, i32 0, i32 3
  %92 = load i64, ptr %91, align 8
  store ptr %90, ptr %15, align 8
  store ptr @.str.13, ptr %16, align 8
  store i64 %92, ptr %17, align 8
  %93 = load ptr, ptr %15, align 8
  %94 = load ptr, ptr %16, align 8
  %95 = load ptr, ptr %16, align 8
  %96 = call i64 @strlen(ptr noundef %95) #12
  %97 = load i64, ptr %17, align 8
  call void @add_assoc_long_ex(ptr noundef %93, ptr noundef %94, i64 noundef %96, i64 noundef %97) #9
  br label %98

98:                                               ; preds = %58, %47, %35
  ret void
}