; Function Attrs: nounwind uwtable
define hidden void @zif_posix_times(ptr nocapture noundef readonly %0, ptr noundef %1) #0 {
  %3 = alloca %struct.tms, align 8
  %4 = getelementptr inbounds i8, ptr %0, i64 44
  %5 = load i32, ptr %4, align 4
  %.not = icmp eq i32 %5, 0
  br i1 %.not, label %7, label %6

6:                                                ; preds = %2
  tail call void @zend_wrong_parameters_none_error() #11
  br label %24

7:                                                ; preds = %2
  %8 = call i64 @times(ptr noundef nonnull %3) #11
  %9 = icmp eq i64 %8, -1
  br i1 %9, label %10, label %14

10:                                               ; preds = %7
  %11 = tail call ptr @__errno_location() #12
  %12 = load i32, ptr %11, align 4
  store i32 %12, ptr @posix_globals, align 4
  %13 = getelementptr inbounds i8, ptr %1, i64 8
  store i32 2, ptr %13, align 8
  br label %24

14:                                               ; preds = %7
  %15 = tail call ptr @_zend_new_array_0() #11
  store ptr %15, ptr %1, align 8
  %16 = getelementptr inbounds i8, ptr %1, i64 8
  store i32 775, ptr %16, align 8
  tail call void @add_assoc_long_ex(ptr noundef nonnull %1, ptr noundef nonnull @.str.9, i64 noundef 5, i64 noundef %8) #11
  %17 = load i64, ptr %3, align 8
  tail call void @add_assoc_long_ex(ptr noundef nonnull %1, ptr noundef nonnull @.str.10, i64 noundef 5, i64 noundef %17) #11
  %18 = getelementptr inbounds i8, ptr %3, i64 8
  %19 = load i64, ptr %18, align 8
  tail call void @add_assoc_long_ex(ptr noundef nonnull %1, ptr noundef nonnull @.str.11, i64 noundef 5, i64 noundef %19) #11
  %20 = getelementptr inbounds i8, ptr %3, i64 16
  %21 = load i64, ptr %20, align 8
  tail call void @add_assoc_long_ex(ptr noundef nonnull %1, ptr noundef nonnull @.str.12, i64 noundef 6, i64 noundef %21) #11
  %22 = getelementptr inbounds i8, ptr %3, i64 24
  %23 = load i64, ptr %22, align 8
  tail call void @add_assoc_long_ex(ptr noundef nonnull %1, ptr noundef nonnull @.str.13, i64 noundef 6, i64 noundef %23) #11
  br label %24

24:                                               ; preds = %14, %10, %6
  ret void
}